target datalayout = "e-m:e-p270:32:32-p271:32:32-p272:64:64-i64:64-i128:128-f80:128-n8:16:32:64-S128"
target triple = "x86_64-pc-linux-gnu"

%struct.LOCOContext = type { ptr, i32, i32 }
%struct.RICEContext = type { %struct.GetBitContext, i32, i32, i32, i32, i32, i32 }
%struct.GetBitContext = type { ptr, ptr, i32, i32, i32 }

; Function Attrs: inlinehint nounwind willreturn memory(none) uwtable
define internal i32 @mid_pred(i32 noundef %0, i32 noundef %1, i32 noundef %2) #7 {
  %4 = alloca i32, align 4
  %5 = alloca i32, align 4
  %6 = alloca i32, align 4
  store i32 %0, ptr %4, align 4, !tbaa !36
  store i32 %1, ptr %5, align 4, !tbaa !36
  store i32 %2, ptr %6, align 4, !tbaa !36
  %7 = load i32, ptr %4, align 4, !tbaa !36
  %8 = load i32, ptr %5, align 4, !tbaa !36
  %9 = icmp sgt i32 %7, %8
  br i1 %9, label %10, label %24

10:                                               ; preds = %3
  %11 = load i32, ptr %6, align 4, !tbaa !36
  %12 = load i32, ptr %5, align 4, !tbaa !36
  %13 = icmp sgt i32 %11, %12
  br i1 %13, label %14, label %23

14:                                               ; preds = %10
  %15 = load i32, ptr %6, align 4, !tbaa !36
  %16 = load i32, ptr %4, align 4, !tbaa !36
  %17 = icmp sgt i32 %15, %16
  br i1 %17, label %18, label %20

18:                                               ; preds = %14
  %19 = load i32, ptr %4, align 4, !tbaa !36
  store i32 %19, ptr %5, align 4, !tbaa !36
  br label %22

20:                                               ; preds = %14
  %21 = load i32, ptr %6, align 4, !tbaa !36
  store i32 %21, ptr %5, align 4, !tbaa !36
  br label %22

22:                                               ; preds = %20, %18
  br label %23

23:                                               ; preds = %22, %10
  br label %38

24:                                               ; preds = %3
  %25 = load i32, ptr %5, align 4, !tbaa !36
  %26 = load i32, ptr %6, align 4, !tbaa !36
  %27 = icmp sgt i32 %25, %26
  br i1 %27, label %28, label %37

28:                                               ; preds = %24
  %29 = load i32, ptr %6, align 4, !tbaa !36
  %30 = load i32, ptr %4, align 4, !tbaa !36
  %31 = icmp sgt i32 %29, %30
  br i1 %31, label %32, label %34

32:                                               ; preds = %28
  %33 = load i32, ptr %6, align 4, !tbaa !36
  store i32 %33, ptr %5, align 4, !tbaa !36
  br label %36

34:                                               ; preds = %28
  %35 = load i32, ptr %4, align 4, !tbaa !36
  store i32 %35, ptr %5, align 4, !tbaa !36
  br label %36

36:                                               ; preds = %34, %32
  br label %37

37:                                               ; preds = %36, %24
  br label %38

38:                                               ; preds = %37, %23
  %39 = load i32, ptr %5, align 4, !tbaa !36
  ret i32 %39
}

; Function Attrs: inlinehint nounwind uwtable
define internal i32 @init_get_bits(ptr noundef %0, ptr noundef %1, i32 noundef %2) #5 {
  %4 = alloca ptr, align 8
  %5 = alloca ptr, align 8
  %6 = alloca i32, align 4
  %7 = alloca i32, align 4
  %8 = alloca i32, align 4
  store ptr %0, ptr %4, align 8, !tbaa !65
  store ptr %1, ptr %5, align 8, !tbaa !48
  store i32 %2, ptr %6, align 4, !tbaa !36
  call void @llvm.lifetime.start.p0(i64 4, ptr %7) #9
  call void @llvm.lifetime.start.p0(i64 4, ptr %8) #9
  store i32 0, ptr %8, align 4, !tbaa !36
  %9 = load i32, ptr %6, align 4, !tbaa !36
  %10 = icmp sge i32 %9, 2147483135
  br i1 %10, label %17, label %11

11:                                               ; preds = %3
  %12 = load i32, ptr %6, align 4, !tbaa !36
  %13 = icmp slt i32 %12, 0
  br i1 %13, label %17, label %14

14:                                               ; preds = %11
  %15 = load ptr, ptr %5, align 8, !tbaa !48
  %16 = icmp ne ptr %15, null
  br i1 %16, label %18, label %17

17:                                               ; preds = %14, %11, %3
  store i32 0, ptr %6, align 4, !tbaa !36
  store ptr null, ptr %5, align 8, !tbaa !48
  store i32 -1094995529, ptr %8, align 4, !tbaa !36
  br label %18

18:                                               ; preds = %17, %14
  %19 = load i32, ptr %6, align 4, !tbaa !36
  %20 = add nsw i32 %19, 7
  %21 = ashr i32 %20, 3
  store i32 %21, ptr %7, align 4, !tbaa !36
  %22 = load ptr, ptr %5, align 8, !tbaa !48
  %23 = load ptr, ptr %4, align 8, !tbaa !65
  %24 = getelementptr inbounds nuw %struct.GetBitContext, ptr %23, i32 0, i32 0
  store ptr %22, ptr %24, align 8, !tbaa !70
  %25 = load i32, ptr %6, align 4, !tbaa !36
  %26 = load ptr, ptr %4, align 8, !tbaa !65
  %27 = getelementptr inbounds nuw %struct.GetBitContext, ptr %26, i32 0, i32 3
  store i32 %25, ptr %27, align 4, !tbaa !71
  %28 = load i32, ptr %6, align 4, !tbaa !36
  %29 = add nsw i32 %28, 8
  %30 = load ptr, ptr %4, align 8, !tbaa !65
  %31 = getelementptr inbounds nuw %struct.GetBitContext, ptr %30, i32 0, i32 4
  store i32 %29, ptr %31, align 8, !tbaa !72
  %32 = load ptr, ptr %5, align 8, !tbaa !48
  %33 = load i32, ptr %7, align 4, !tbaa !36
  %34 = sext i32 %33 to i64
  %35 = getelementptr inbounds i8, ptr %32, i64 %34
  %36 = load ptr, ptr %4, align 8, !tbaa !65
  %37 = getelementptr inbounds nuw %struct.GetBitContext, ptr %36, i32 0, i32 1
  store ptr %35, ptr %37, align 8, !tbaa !73
  %38 = load ptr, ptr %4, align 8, !tbaa !65
  %39 = getelementptr inbounds nuw %struct.GetBitContext, ptr %38, i32 0, i32 2
  store i32 0, ptr %39, align 8, !tbaa !69
  %40 = load i32, ptr %8, align 4, !tbaa !36
  call void @llvm.lifetime.end.p0(i64 4, ptr %8) #9
  call void @llvm.lifetime.end.p0(i64 4, ptr %7) #9
  ret i32 %40
}

; Function Attrs: inlinehint nounwind uwtable
define internal i32 @get_bits_count(ptr noundef %0) #5 {
  %2 = alloca ptr, align 8
  store ptr %0, ptr %2, align 8, !tbaa !65
  %3 = load ptr, ptr %2, align 8, !tbaa !65
  %4 = getelementptr inbounds nuw %struct.GetBitContext, ptr %3, i32 0, i32 2
  %5 = load i32, ptr %4, align 8, !tbaa !69
  ret i32 %5
}

; Function Attrs: inlinehint nounwind uwtable
define internal i32 @loco_predict(ptr noundef %0, i32 noundef %1) #5 {
  %3 = alloca ptr, align 8
  %4 = alloca i32, align 4
  %5 = alloca i32, align 4
  %6 = alloca i32, align 4
  %7 = alloca i32, align 4
  store ptr %0, ptr %3, align 8, !tbaa !48
  store i32 %1, ptr %4, align 4, !tbaa !36
  call void @llvm.lifetime.start.p0(i64 4, ptr %5) #9
  call void @llvm.lifetime.start.p0(i64 4, ptr %6) #9
  call void @llvm.lifetime.start.p0(i64 4, ptr %7) #9
  %8 = load ptr, ptr %3, align 8, !tbaa !48
  %9 = load i32, ptr %4, align 4, !tbaa !36
  %10 = sub nsw i32 0, %9
  %11 = sext i32 %10 to i64
  %12 = getelementptr inbounds i8, ptr %8, i64 %11
  %13 = load i8, ptr %12, align 1, !tbaa !35
  %14 = zext i8 %13 to i32
  store i32 %14, ptr %5, align 4, !tbaa !36
  %15 = load ptr, ptr %3, align 8, !tbaa !48
  %16 = getelementptr inbounds i8, ptr %15, i64 -1
  %17 = load i8, ptr %16, align 1, !tbaa !35
  %18 = zext i8 %17 to i32
  store i32 %18, ptr %6, align 4, !tbaa !36
  %19 = load ptr, ptr %3, align 8, !tbaa !48
  %20 = load i32, ptr %4, align 4, !tbaa !36
  %21 = sub nsw i32 0, %20
  %22 = sub nsw i32 %21, 1
  %23 = sext i32 %22 to i64
  %24 = getelementptr inbounds i8, ptr %19, i64 %23
  %25 = load i8, ptr %24, align 1, !tbaa !35
  %26 = zext i8 %25 to i32
  store i32 %26, ptr %7, align 4, !tbaa !36
  %27 = load i32, ptr %5, align 4, !tbaa !36
  %28 = load i32, ptr %5, align 4, !tbaa !36
  %29 = load i32, ptr %6, align 4, !tbaa !36
  %30 = add nsw i32 %28, %29
  %31 = load i32, ptr %7, align 4, !tbaa !36
  %32 = sub nsw i32 %30, %31
  %33 = load i32, ptr %6, align 4, !tbaa !36
  %34 = call i32 @mid_pred(i32 noundef %27, i32 noundef %32, i32 noundef %33) #11
  call void @llvm.lifetime.end.p0(i64 4, ptr %7) #9
  call void @llvm.lifetime.end.p0(i64 4, ptr %6) #9
  call void @llvm.lifetime.end.p0(i64 4, ptr %5) #9
  ret i32 %34
}

; Function Attrs: inlinehint nounwind uwtable
define internal i32 @init_get_bits8(ptr noundef %0, ptr noundef %1, i32 noundef %2) #5 {
  %4 = alloca ptr, align 8
  %5 = alloca ptr, align 8
  %6 = alloca i32, align 4
  store ptr %0, ptr %4, align 8, !tbaa !65
  store ptr %1, ptr %5, align 8, !tbaa !48
  store i32 %2, ptr %6, align 4, !tbaa !36
  %7 = load i32, ptr %6, align 4, !tbaa !36
  %8 = icmp sgt i32 %7, 268435455
  br i1 %8, label %12, label %9

9:                                                ; preds = %3
  %10 = load i32, ptr %6, align 4, !tbaa !36
  %11 = icmp slt i32 %10, 0
  br i1 %11, label %12, label %13

12:                                               ; preds = %9, %3
  store i32 -1, ptr %6, align 4, !tbaa !36
  br label %13

13:                                               ; preds = %12, %9
  %14 = load ptr, ptr %4, align 8, !tbaa !65
  %15 = load ptr, ptr %5, align 8, !tbaa !48
  %16 = load i32, ptr %6, align 4, !tbaa !36
  %17 = mul nsw i32 %16, 8
  %18 = call i32 @init_get_bits(ptr noundef %14, ptr noundef %15, i32 noundef %17)
  ret i32 %18
}

; Function Attrs: nounwind uwtable
define internal i32 @loco_decode_plane(ptr noundef %0, ptr noundef %1, i32 noundef %2, i32 noundef %3, i32 noundef %4, ptr noundef %5, i32 noundef %6) #1 {
  %8 = alloca i32, align 4
  %9 = alloca ptr, align 8
  %10 = alloca ptr, align 8
  %11 = alloca i32, align 4
  %12 = alloca i32, align 4
  %13 = alloca i32, align 4
  %14 = alloca ptr, align 8
  %15 = alloca i32, align 4
  %16 = alloca %struct.RICEContext, align 8
  %17 = alloca i32, align 4
  %18 = alloca i32, align 4
  %19 = alloca i32, align 4
  %20 = alloca i32, align 4
  %21 = alloca i32, align 4
  store ptr %0, ptr %9, align 8, !tbaa !29
  store ptr %1, ptr %10, align 8, !tbaa !48
  store i32 %2, ptr %11, align 4, !tbaa !36
  store i32 %3, ptr %12, align 4, !tbaa !36
  store i32 %4, ptr %13, align 4, !tbaa !36
  store ptr %5, ptr %14, align 8, !tbaa !48
  store i32 %6, ptr %15, align 4, !tbaa !36
  call void @llvm.lifetime.start.p0(i64 56, ptr %16) #9
  call void @llvm.lifetime.start.p0(i64 4, ptr %17) #9
  call void @llvm.lifetime.start.p0(i64 4, ptr %18) #9
  call void @llvm.lifetime.start.p0(i64 4, ptr %19) #9
  call void @llvm.lifetime.start.p0(i64 4, ptr %20) #9
  %22 = load i32, ptr %15, align 4, !tbaa !36
  %23 = icmp sle i32 %22, 0
  br i1 %23, label %24, label %25

24:                                               ; preds = %7
  store i32 -1, ptr %8, align 4
  store i32 1, ptr %21, align 4
  br label %146

25:                                               ; preds = %7
  %26 = getelementptr inbounds nuw %struct.RICEContext, ptr %16, i32 0, i32 0
  %27 = load ptr, ptr %14, align 8, !tbaa !48
  %28 = load i32, ptr %15, align 4, !tbaa !36
  %29 = call i32 @init_get_bits8(ptr noundef %26, ptr noundef %27, i32 noundef %28)
  store i32 %29, ptr %18, align 4, !tbaa !36
  %30 = icmp slt i32 %29, 0
  br i1 %30, label %31, label %33

31:                                               ; preds = %25
  %32 = load i32, ptr %18, align 4, !tbaa !36
  store i32 %32, ptr %8, align 4
  store i32 1, ptr %21, align 4
  br label %146

33:                                               ; preds = %25
  %34 = getelementptr inbounds nuw %struct.RICEContext, ptr %16, i32 0, i32 1
  store i32 0, ptr %34, align 8, !tbaa !52
  %35 = getelementptr inbounds nuw %struct.RICEContext, ptr %16, i32 0, i32 2
  store i32 0, ptr %35, align 4, !tbaa !55
  %36 = getelementptr inbounds nuw %struct.RICEContext, ptr %16, i32 0, i32 3
  store i32 0, ptr %36, align 8, !tbaa !56
  %37 = load ptr, ptr %9, align 8, !tbaa !29
  %38 = getelementptr inbounds nuw %struct.LOCOContext, ptr %37, i32 0, i32 1
  %39 = load i32, ptr %38, align 8, !tbaa !37
  %40 = getelementptr inbounds nuw %struct.RICEContext, ptr %16, i32 0, i32 6
  store i32 %39, ptr %40, align 4, !tbaa !57
  %41 = getelementptr inbounds nuw %struct.RICEContext, ptr %16, i32 0, i32 4
  store i32 8, ptr %41, align 4, !tbaa !58
  %42 = getelementptr inbounds nuw %struct.RICEContext, ptr %16, i32 0, i32 5
  store i32 1, ptr %42, align 8, !tbaa !59
  %43 = call i32 @loco_get_rice(ptr noundef %16)
  store i32 %43, ptr %17, align 4, !tbaa !36
  %44 = load i32, ptr %17, align 4, !tbaa !36
  %45 = icmp eq i32 %44, -2147483648
  br i1 %45, label %46, label %47

46:                                               ; preds = %33
  store i32 -1094995529, ptr %8, align 4
  store i32 1, ptr %21, align 4
  br label %146

47:                                               ; preds = %33
  %48 = load i32, ptr %17, align 4, !tbaa !36
  %49 = add i32 128, %48
  %50 = trunc i32 %49 to i8
  %51 = load ptr, ptr %10, align 8, !tbaa !48
  %52 = getelementptr inbounds i8, ptr %51, i64 0
  store i8 %50, ptr %52, align 1, !tbaa !35
  store i32 1, ptr %19, align 4, !tbaa !36
  br label %53

53:                                               ; preds = %77, %47
  %54 = load i32, ptr %19, align 4, !tbaa !36
  %55 = load i32, ptr %11, align 4, !tbaa !36
  %56 = icmp slt i32 %54, %55
  br i1 %56, label %57, label %80

57:                                               ; preds = %53
  %58 = call i32 @loco_get_rice(ptr noundef %16)
  store i32 %58, ptr %17, align 4, !tbaa !36
  %59 = load i32, ptr %17, align 4, !tbaa !36
  %60 = icmp eq i32 %59, -2147483648
  br i1 %60, label %61, label %62

61:                                               ; preds = %57
  store i32 -1094995529, ptr %8, align 4
  store i32 1, ptr %21, align 4
  br label %146

62:                                               ; preds = %57
  %63 = load ptr, ptr %10, align 8, !tbaa !48
  %64 = load i32, ptr %19, align 4, !tbaa !36
  %65 = sub nsw i32 %64, 1
  %66 = sext i32 %65 to i64
  %67 = getelementptr inbounds i8, ptr %63, i64 %66
  %68 = load i8, ptr %67, align 1, !tbaa !35
  %69 = zext i8 %68 to i32
  %70 = load i32, ptr %17, align 4, !tbaa !36
  %71 = add i32 %69, %70
  %72 = trunc i32 %71 to i8
  %73 = load ptr, ptr %10, align 8, !tbaa !48
  %74 = load i32, ptr %19, align 4, !tbaa !36
  %75 = sext i32 %74 to i64
  %76 = getelementptr inbounds i8, ptr %73, i64 %75
  store i8 %72, ptr %76, align 1, !tbaa !35
  br label %77

77:                                               ; preds = %62
  %78 = load i32, ptr %19, align 4, !tbaa !36
  %79 = add nsw i32 %78, 1
  store i32 %79, ptr %19, align 4, !tbaa !36
  br label %53, !llvm.loop !60

80:                                               ; preds = %53
  %81 = load i32, ptr %13, align 4, !tbaa !36
  %82 = load ptr, ptr %10, align 8, !tbaa !48
  %83 = sext i32 %81 to i64
  %84 = getelementptr inbounds i8, ptr %82, i64 %83
  store ptr %84, ptr %10, align 8, !tbaa !48
  store i32 1, ptr %20, align 4, !tbaa !36
  br label %85

85:                                               ; preds = %138, %80
  %86 = load i32, ptr %20, align 4, !tbaa !36
  %87 = load i32, ptr %12, align 4, !tbaa !36
  %88 = icmp slt i32 %86, %87
  br i1 %88, label %89, label %141

89:                                               ; preds = %85
  %90 = call i32 @loco_get_rice(ptr noundef %16)
  store i32 %90, ptr %17, align 4, !tbaa !36
  %91 = load i32, ptr %17, align 4, !tbaa !36
  %92 = icmp eq i32 %91, -2147483648
  br i1 %92, label %93, label %94

93:                                               ; preds = %89
  store i32 -1094995529, ptr %8, align 4
  store i32 1, ptr %21, align 4
  br label %146

94:                                               ; preds = %89
  %95 = load ptr, ptr %10, align 8, !tbaa !48
  %96 = load i32, ptr %13, align 4, !tbaa !36
  %97 = sub nsw i32 0, %96
  %98 = sext i32 %97 to i64
  %99 = getelementptr inbounds i8, ptr %95, i64 %98
  %100 = load i8, ptr %99, align 1, !tbaa !35
  %101 = zext i8 %100 to i32
  %102 = load i32, ptr %17, align 4, !tbaa !36
  %103 = add i32 %101, %102
  %104 = trunc i32 %103 to i8
  %105 = load ptr, ptr %10, align 8, !tbaa !48
  %106 = getelementptr inbounds i8, ptr %105, i64 0
  store i8 %104, ptr %106, align 1, !tbaa !35
  store i32 1, ptr %19, align 4, !tbaa !36
  br label %107

107:                                              ; preds = %130, %94
  %108 = load i32, ptr %19, align 4, !tbaa !36
  %109 = load i32, ptr %11, align 4, !tbaa !36
  %110 = icmp slt i32 %108, %109
  br i1 %110, label %111, label %133

111:                                              ; preds = %107
  %112 = call i32 @loco_get_rice(ptr noundef %16)
  store i32 %112, ptr %17, align 4, !tbaa !36
  %113 = load i32, ptr %17, align 4, !tbaa !36
  %114 = icmp eq i32 %113, -2147483648
  br i1 %114, label %115, label %116

115:                                              ; preds = %111
  store i32 -1, ptr %8, align 4
  store i32 1, ptr %21, align 4
  br label %146

116:                                              ; preds = %111
  %117 = load ptr, ptr %10, align 8, !tbaa !48
  %118 = load i32, ptr %19, align 4, !tbaa !36
  %119 = sext i32 %118 to i64
  %120 = getelementptr inbounds i8, ptr %117, i64 %119
  %121 = load i32, ptr %13, align 4, !tbaa !36
  %122 = call i32 @loco_predict(ptr noundef %120, i32 noundef %121)
  %123 = load i32, ptr %17, align 4, !tbaa !36
  %124 = add i32 %122, %123
  %125 = trunc i32 %124 to i8
  %126 = load ptr, ptr %10, align 8, !tbaa !48
  %127 = load i32, ptr %19, align 4, !tbaa !36
  %128 = sext i32 %127 to i64
  %129 = getelementptr inbounds i8, ptr %126, i64 %128
  store i8 %125, ptr %129, align 1, !tbaa !35
  br label %130

130:                                              ; preds = %116
  %131 = load i32, ptr %19, align 4, !tbaa !36
  %132 = add nsw i32 %131, 1
  store i32 %132, ptr %19, align 4, !tbaa !36
  br label %107, !llvm.loop !62

133:                                              ; preds = %107
  %134 = load i32, ptr %13, align 4, !tbaa !36
  %135 = load ptr, ptr %10, align 8, !tbaa !48
  %136 = sext i32 %134 to i64
  %137 = getelementptr inbounds i8, ptr %135, i64 %136
  store ptr %137, ptr %10, align 8, !tbaa !48
  br label %138

138:                                              ; preds = %133
  %139 = load i32, ptr %20, align 4, !tbaa !36
  %140 = add nsw i32 %139, 1
  store i32 %140, ptr %20, align 4, !tbaa !36
  br label %85, !llvm.loop !63

141:                                              ; preds = %85
  %142 = getelementptr inbounds nuw %struct.RICEContext, ptr %16, i32 0, i32 0
  %143 = call i32 @get_bits_count(ptr noundef %142)
  %144 = add nsw i32 %143, 7
  %145 = ashr i32 %144, 3
  store i32 %145, ptr %8, align 4
  store i32 1, ptr %21, align 4
  br label %146

146:                                              ; preds = %141, %115, %93, %61, %46, %31, %24
  call void @llvm.lifetime.end.p0(i64 4, ptr %20) #9
  call void @llvm.lifetime.end.p0(i64 4, ptr %19) #9
  call void @llvm.lifetime.end.p0(i64 4, ptr %18) #9
  call void @llvm.lifetime.end.p0(i64 4, ptr %17) #9
  call void @llvm.lifetime.end.p0(i64 56, ptr %16) #9
  %147 = load i32, ptr %8, align 4
  ret i32 %147
}