; Function Attrs: nofree norecurse nosync nounwind memory(readwrite, inaccessiblemem: none) uwtable
define internal fastcc range(i32 -1094995529, 268435456) i32 @loco_decode_plane(ptr noundef readonly captures(none) %0, ptr noundef captures(none) %1, i32 noundef %2, i32 noundef %3, i32 noundef %4, ptr noundef %5, i32 noundef %6) unnamed_addr #4 {
  %8 = alloca %struct.RICEContext, align 8
  call void @llvm.lifetime.start.p0(i64 56, ptr nonnull %8) #10
  %9 = icmp slt i32 %6, 1
  br i1 %9, label %.loopexit, label %10

10:                                               ; preds = %7
  %11 = icmp samesign ugt i32 %6, 268435455
  %12 = shl nuw nsw i32 %6, 3
  %13 = select i1 %11, i32 -8, i32 %12
  %or.cond.i.i = icmp ult i32 %13, 2147483135
  %14 = icmp ne ptr %5, null
  %or.cond3.i.i = and i1 %14, %or.cond.i.i
  %.018.i.i = select i1 %or.cond3.i.i, i32 %13, i32 0
  %.017.i.i = select i1 %or.cond.i.i, ptr %5, ptr null
  %15 = lshr exact i32 %.018.i.i, 3
  store ptr %.017.i.i, ptr %8, align 8, !tbaa !44
  %16 = getelementptr inbounds nuw i8, ptr %8, i64 20
  store i32 %.018.i.i, ptr %16, align 4, !tbaa !46
  %17 = add nuw nsw i32 %.018.i.i, 8
  %18 = getelementptr inbounds nuw i8, ptr %8, i64 24
  store i32 %17, ptr %18, align 8, !tbaa !47
  %19 = zext nneg i32 %15 to i64
  %20 = getelementptr inbounds nuw i8, ptr %.017.i.i, i64 %19
  %21 = getelementptr inbounds nuw i8, ptr %8, i64 8
  store ptr %20, ptr %21, align 8, !tbaa !48
  %22 = getelementptr inbounds nuw i8, ptr %8, i64 16
  store i32 0, ptr %22, align 8, !tbaa !49
  br i1 %or.cond3.i.i, label %23, label %.loopexit

23:                                               ; preds = %10
  %24 = getelementptr inbounds nuw i8, ptr %8, i64 32
  store i32 0, ptr %24, align 8, !tbaa !50
  %25 = getelementptr inbounds nuw i8, ptr %8, i64 36
  store i32 0, ptr %25, align 4, !tbaa !52
  %26 = getelementptr inbounds nuw i8, ptr %8, i64 40
  store i32 0, ptr %26, align 8, !tbaa !53
  %27 = getelementptr inbounds nuw i8, ptr %0, i64 8
  %28 = load i32, ptr %27, align 8, !tbaa !33
  %29 = getelementptr inbounds nuw i8, ptr %8, i64 52
  store i32 %28, ptr %29, align 4, !tbaa !54
  %30 = getelementptr inbounds nuw i8, ptr %8, i64 44
  store i32 8, ptr %30, align 4, !tbaa !55
  %31 = getelementptr inbounds nuw i8, ptr %8, i64 48
  store i32 1, ptr %31, align 8, !tbaa !56
  %32 = call fastcc i32 @loco_get_rice(ptr noundef %8)
  %33 = icmp eq i32 %32, -2147483648
  br i1 %33, label %.loopexit, label %34

34:                                               ; preds = %23
  %35 = trunc i32 %32 to i8
  %36 = xor i8 %35, -128
  store i8 %36, ptr %1, align 1, !tbaa !32
  %37 = icmp sgt i32 %2, 1
  br i1 %37, label %.lr.ph.preheader, label %._crit_edge.thread

.lr.ph.preheader:                                 ; preds = %34
  %wide.trip.count = zext nneg i32 %2 to i64
  br label %.lr.ph

.lr.ph:                                           ; preds = %.lr.ph.preheader, %40
  %indvars.iv = phi i64 [ 1, %.lr.ph.preheader ], [ %indvars.iv.next, %40 ]
  %38 = call fastcc i32 @loco_get_rice(ptr noundef %8)
  %39 = icmp eq i32 %38, -2147483648
  br i1 %39, label %.loopexit, label %40

40:                                               ; preds = %.lr.ph
  %41 = getelementptr i8, ptr %1, i64 %indvars.iv
  %42 = getelementptr i8, ptr %41, i64 -1
  %43 = load i8, ptr %42, align 1, !tbaa !32
  %44 = trunc i32 %38 to i8
  %45 = add i8 %43, %44
  store i8 %45, ptr %41, align 1, !tbaa !32
  %indvars.iv.next = add nuw nsw i64 %indvars.iv, 1
  %exitcond.not = icmp eq i64 %indvars.iv.next, %wide.trip.count
  br i1 %exitcond.not, label %._crit_edge, label %.lr.ph, !llvm.loop !57

._crit_edge:                                      ; preds = %40
  %46 = sext i32 %4 to i64
  %47 = icmp sgt i32 %3, 1
  br i1 %47, label %.lr.ph61, label %._crit_edge62

._crit_edge.thread:                               ; preds = %34
  %48 = icmp sgt i32 %3, 1
  br i1 %48, label %.lr.ph61.thread, label %._crit_edge62

.lr.ph61.thread:                                  ; preds = %._crit_edge.thread
  %49 = sext i32 %4 to i64
  %50 = sub nsw i32 0, %4
  %51 = sext i32 %50 to i64
  br label %.lr.ph61.split

.lr.ph61:                                         ; preds = %._crit_edge
  %52 = sub nsw i32 0, %4
  %53 = sext i32 %52 to i64
  %54 = xor i32 %4, -1
  %55 = sext i32 %54 to i64
  %wide.trip.count72 = zext nneg i32 %2 to i64
  br label %.lr.ph61.split.us

.lr.ph61.split.us:                                ; preds = %.lr.ph61, %._crit_edge56.us
  %.04159.us.pn = phi ptr [ %.04159.us, %._crit_edge56.us ], [ %1, %.lr.ph61 ]
  %.058.us = phi i32 [ %87, %._crit_edge56.us ], [ 1, %.lr.ph61 ]
  %.04159.us = getelementptr inbounds i8, ptr %.04159.us.pn, i64 %46
  %56 = call fastcc i32 @loco_get_rice(ptr noundef %8)
  %57 = icmp eq i32 %56, -2147483648
  br i1 %57, label %.loopexit, label %.lr.ph55.us

.lr.ph55.us:                                      ; preds = %.lr.ph61.split.us
  %58 = getelementptr inbounds i8, ptr %.04159.us, i64 %53
  %59 = load i8, ptr %58, align 1, !tbaa !32
  %60 = trunc i32 %56 to i8
  %61 = add i8 %59, %60
  store i8 %61, ptr %.04159.us, align 1, !tbaa !32
  br label %62

62:                                               ; preds = %.lr.ph55.us, %loco_predict.exit.us
  %indvars.iv69 = phi i64 [ 1, %.lr.ph55.us ], [ %indvars.iv.next70, %loco_predict.exit.us ]
  %63 = call fastcc i32 @loco_get_rice(ptr noundef %8)
  %64 = icmp eq i32 %63, -2147483648
  br i1 %64, label %.loopexit, label %65

65:                                               ; preds = %62
  %66 = getelementptr inbounds nuw i8, ptr %.04159.us, i64 %indvars.iv69
  %67 = getelementptr inbounds i8, ptr %66, i64 %53
  %68 = load i8, ptr %67, align 1, !tbaa !32
  %69 = zext i8 %68 to i32
  %70 = getelementptr inbounds i8, ptr %66, i64 -1
  %71 = load i8, ptr %70, align 1, !tbaa !32
  %72 = zext i8 %71 to i32
  %73 = getelementptr inbounds i8, ptr %66, i64 %55
  %74 = load i8, ptr %73, align 1, !tbaa !32
  %75 = zext i8 %74 to i32
  %76 = add nuw nsw i32 %72, %69
  %77 = sub nsw i32 %76, %75
  %78 = icmp slt i32 %77, %69
  br i1 %78, label %82, label %79

79:                                               ; preds = %65
  %80 = icmp samesign ugt i32 %77, %72
  br i1 %80, label %81, label %loco_predict.exit.us

81:                                               ; preds = %79
  %.20.i.i.us = tail call i32 @llvm.umax.i32(i32 range(i32 0, 256) %72, i32 range(i32 0, 256) %69)
  br label %loco_predict.exit.us

82:                                               ; preds = %65
  %83 = icmp slt i32 %77, %72
  br i1 %83, label %84, label %loco_predict.exit.us

84:                                               ; preds = %82
  %..i.i.us = tail call i32 @llvm.umin.i32(i32 range(i32 0, 256) %72, i32 range(i32 0, 256) %69)
  br label %loco_predict.exit.us

loco_predict.exit.us:                             ; preds = %84, %82, %81, %79
  %.0.i.i49.us = phi i32 [ %77, %82 ], [ %77, %79 ], [ %..i.i.us, %84 ], [ %.20.i.i.us, %81 ]
  %85 = add i32 %.0.i.i49.us, %63
  %86 = trunc i32 %85 to i8
  store i8 %86, ptr %66, align 1, !tbaa !32
  %indvars.iv.next70 = add nuw nsw i64 %indvars.iv69, 1
  %exitcond73.not = icmp eq i64 %indvars.iv.next70, %wide.trip.count72
  br i1 %exitcond73.not, label %._crit_edge56.us, label %62, !llvm.loop !59

._crit_edge56.us:                                 ; preds = %loco_predict.exit.us
  %87 = add nuw nsw i32 %.058.us, 1
  %exitcond74.not = icmp eq i32 %87, %3
  br i1 %exitcond74.not, label %._crit_edge62, label %.lr.ph61.split.us, !llvm.loop !60

.lr.ph61.split:                                   ; preds = %.lr.ph61.thread, %90
  %.04159.pn = phi ptr [ %.04159, %90 ], [ %1, %.lr.ph61.thread ]
  %.058 = phi i32 [ %95, %90 ], [ 1, %.lr.ph61.thread ]
  %88 = call fastcc i32 @loco_get_rice(ptr noundef %8)
  %89 = icmp eq i32 %88, -2147483648
  br i1 %89, label %.loopexit, label %90

90:                                               ; preds = %.lr.ph61.split
  %.04159 = getelementptr inbounds i8, ptr %.04159.pn, i64 %49
  %91 = getelementptr inbounds i8, ptr %.04159, i64 %51
  %92 = load i8, ptr %91, align 1, !tbaa !32
  %93 = trunc i32 %88 to i8
  %94 = add i8 %92, %93
  store i8 %94, ptr %.04159, align 1, !tbaa !32
  %95 = add nuw nsw i32 %.058, 1
  %exitcond68.not = icmp eq i32 %95, %3
  br i1 %exitcond68.not, label %._crit_edge62, label %.lr.ph61.split, !llvm.loop !60

._crit_edge62:                                    ; preds = %90, %._crit_edge56.us, %._crit_edge.thread, %._crit_edge
  %.val = load i32, ptr %22, align 8, !tbaa !49
  %96 = add nsw i32 %.val, 7
  %97 = ashr i32 %96, 3
  br label %.loopexit

.loopexit:                                        ; preds = %.lr.ph61.split, %.lr.ph, %.lr.ph61.split.us, %62, %23, %10, %7, %._crit_edge62
  %.040 = phi i32 [ %97, %._crit_edge62 ], [ -1, %7 ], [ -1094995529, %10 ], [ -1094995529, %23 ], [ -1, %62 ], [ -1094995529, %.lr.ph61.split.us ], [ -1094995529, %.lr.ph ], [ -1094995529, %.lr.ph61.split ]
  call void @llvm.lifetime.end.p0(i64 56, ptr nonnull %8) #10
  ret i32 %.040
}